target datalayout = "e-m:e-p270:32:32-p271:32:32-p272:64:64-i64:64-i128:128-f80:128-n8:16:32:64-S128"
target triple = "x86_64-pc-linux-gnu"

%struct._zend_array = type { %struct._zend_refcounted_h, %union.anon.4, i32, %union.anon.6, i32, i32, i32, i32, i64, ptr }
%struct._zend_refcounted_h = type { i32, %union.anon.3 }
%union.anon.3 = type { i32 }
%union.anon.4 = type { i32 }
%union.anon.6 = type { ptr }
%struct._zend_object_handlers = type { i32, ptr, ptr, ptr, ptr, ptr, ptr, ptr, ptr, ptr, ptr, ptr, ptr, ptr, ptr, ptr, ptr, ptr, ptr, ptr, ptr, ptr, ptr, ptr, ptr }
%struct._zend_class_entry = type { i8, ptr, %union.anon.8, i32, i32, i32, i32, ptr, ptr, ptr, %struct._zend_array, %struct._zend_array, %struct._zend_array, ptr, ptr, ptr, ptr, ptr, ptr, ptr, ptr, ptr, ptr, ptr, ptr, ptr, ptr, ptr, ptr, ptr, ptr, ptr, %union.anon.9, ptr, ptr, ptr, ptr, i32, i32, %union.anon.10, ptr, ptr, ptr, ptr, i32, ptr, ptr, %union.anon.11 }
%union.anon.8 = type { ptr }
%union.anon.9 = type { ptr }
%union.anon.10 = type { ptr }
%union.anon.11 = type { %struct.anon.12 }
%struct.anon.12 = type { ptr, i32, i32 }
%struct.anon.13 = type { ptr, ptr }

@xmlwriter_class_entry_ce = internal global ptr null, align 8
@.str.66 = private unnamed_addr constant [10 x i8] c"XMLWriter\00", align 1
@xmlwriter_object_handlers = internal global %struct._zend_object_handlers zeroinitializer, align 8
@std_object_handlers = external constant %struct._zend_object_handlers, align 8
@zend_string_init_interned = external global ptr, align 8

; Function Attrs: nounwind uwtable
define internal ptr @register_class_XMLWriter() #0 {
  %1 = alloca %struct._zend_class_entry, align 8
  %2 = alloca ptr, align 8
  call void @llvm.memset.p0.i64(ptr align 8 %1, i8 0, i64 512, i1 false)
  %3 = load ptr, ptr @zend_string_init_interned, align 8
  %4 = call ptr %3(ptr noundef @.str.66, i64 noundef 9, i1 noundef zeroext true)
  %5 = getelementptr inbounds %struct._zend_class_entry, ptr %1, i32 0, i32 1
  store ptr %4, ptr %5, align 8
  %6 = getelementptr inbounds %struct._zend_class_entry, ptr %1, i32 0, i32 29
  store ptr @std_object_handlers, ptr %6, align 8
  %7 = getelementptr inbounds %struct._zend_class_entry, ptr %1, i32 0, i32 47
  %8 = getelementptr inbounds %struct.anon.13, ptr %7, i32 0, i32 0
  store ptr @class_XMLWriter_methods, ptr %8, align 8
  %9 = call ptr @zend_register_internal_class_ex(ptr noundef %1, ptr noundef null)
  store ptr %9, ptr %2, align 8
  %10 = load ptr, ptr %2, align 8
  ret ptr %10
}

; Function Attrs: nounwind uwtable
define internal i32 @zm_startup_xmlwriter(i32 noundef %0, i32 noundef %1) #0 {
  %3 = alloca i32, align 4
  %4 = alloca i32, align 4
  store i32 %0, ptr %3, align 4
  store i32 %1, ptr %4, align 4
  call void @llvm.memcpy.p0.p0.i64(ptr align 8 @xmlwriter_object_handlers, ptr align 8 @std_object_handlers, i64 200, i1 false)
  store i32 16, ptr @xmlwriter_object_handlers, align 8
  store ptr @xmlwriter_object_dtor, ptr getelementptr inbounds (%struct._zend_object_handlers, ptr @xmlwriter_object_handlers, i32 0, i32 2), align 8
  store ptr @xmlwriter_object_free_storage, ptr getelementptr inbounds (%struct._zend_object_handlers, ptr @xmlwriter_object_handlers, i32 0, i32 1), align 8
  store ptr null, ptr getelementptr inbounds (%struct._zend_object_handlers, ptr @xmlwriter_object_handlers, i32 0, i32 3), align 8
  %5 = call ptr @register_class_XMLWriter()
  store ptr %5, ptr @xmlwriter_class_entry_ce, align 8
  %6 = load ptr, ptr @xmlwriter_class_entry_ce, align 8
  %7 = getelementptr inbounds %struct._zend_class_entry, ptr %6, i32 0, i32 32
  store ptr @xmlwriter_object_new, ptr %7, align 8
  %8 = load ptr, ptr @xmlwriter_class_entry_ce, align 8
  %9 = getelementptr inbounds %struct._zend_class_entry, ptr %8, i32 0, i32 29
  store ptr @xmlwriter_object_handlers, ptr %9, align 8
  ret i32 0
}