; Function Attrs: nounwind uwtable
define internal noundef i32 @zm_startup_xmlwriter(i32 %0, i32 %1) #0 {
  %3 = alloca %struct._zend_class_entry, align 8
  tail call void @llvm.memcpy.p0.p0.i64(ptr noundef nonnull align 8 dereferenceable(200) @xmlwriter_object_handlers, ptr noundef nonnull align 8 dereferenceable(200) @std_object_handlers, i64 200, i1 false)
  store i32 16, ptr @xmlwriter_object_handlers, align 8
  store ptr @xmlwriter_object_dtor, ptr getelementptr inbounds (%struct._zend_object_handlers, ptr @xmlwriter_object_handlers, i64 0, i32 2), align 8
  store ptr @xmlwriter_object_free_storage, ptr getelementptr inbounds (%struct._zend_object_handlers, ptr @xmlwriter_object_handlers, i64 0, i32 1), align 8
  store ptr null, ptr getelementptr inbounds (%struct._zend_object_handlers, ptr @xmlwriter_object_handlers, i64 0, i32 3), align 8
  call void @llvm.lifetime.start.p0(i64 512, ptr nonnull %3)
  call void @llvm.memset.p0.i64(ptr noundef nonnull align 8 dereferenceable(512) %3, i8 0, i64 512, i1 false)
  %4 = load ptr, ptr @zend_string_init_interned, align 8
  %5 = tail call ptr %4(ptr noundef nonnull @.str.66, i64 noundef 9, i1 noundef zeroext true) #11
  %6 = getelementptr inbounds i8, ptr %3, i64 8
  store ptr %5, ptr %6, align 8
  %7 = getelementptr inbounds i8, ptr %3, i64 360
  store ptr @std_object_handlers, ptr %7, align 8
  %8 = getelementptr inbounds i8, ptr %3, i64 496
  store ptr @class_XMLWriter_methods, ptr %8, align 8
  %9 = call ptr @zend_register_internal_class_ex(ptr noundef nonnull %3, ptr noundef null) #11
  call void @llvm.lifetime.end.p0(i64 512, ptr nonnull %3)
  store ptr %9, ptr @xmlwriter_class_entry_ce, align 8
  %10 = getelementptr inbounds i8, ptr %9, i64 384
  store ptr @xmlwriter_object_new, ptr %10, align 8
  %11 = getelementptr inbounds i8, ptr %9, i64 360
  store ptr @xmlwriter_object_handlers, ptr %11, align 8
  ret i32 0
}